; Function Attrs: mustprogress nofree norecurse nosync nounwind willreturn memory(readwrite, inaccessiblemem: none) uwtable
define range(i32 0, 128) i32 @ff_vvc_transform_skip_flag(ptr noundef readonly captures(none) %0, i32 noundef %1) local_unnamed_addr #2 {
  %3 = getelementptr inbounds nuw i8, ptr %0, i64 4580560
  %4 = load ptr, ptr %3, align 16, !tbaa !67
  %5 = getelementptr inbounds nuw i8, ptr %4, i64 2672
  %6 = getelementptr inbounds nuw i8, ptr %4, i64 400
  %7 = sext i32 %1 to i64
  %8 = getelementptr %struct.VVCCabacState, ptr %6, i64 %7
  %9 = getelementptr i8, ptr %8, i64 876
  %10 = getelementptr inbounds nuw i8, ptr %4, i64 2676
  %11 = load i32, ptr %10, align 4, !tbaa !100
  %12 = ashr i32 %11, 5
  %13 = getelementptr i8, ptr %8, i64 878
  %14 = load i16, ptr %13, align 2, !tbaa !58
  %15 = zext i16 %14 to i32
  %16 = load i16, ptr %9, align 2, !tbaa !58
  %17 = zext i16 %16 to i32
  %18 = shl nuw nsw i32 %17, 4
  %19 = add nuw nsw i32 %18, %15
  %.not.i = icmp samesign ult i32 %19, 16384
  %20 = sub nsw i32 32767, %19
  %21 = select i1 %.not.i, i32 %19, i32 %20
  %22 = ashr i32 %21, 9
  %23 = mul nsw i32 %22, %12
  %24 = ashr i32 %23, 1
  %25 = add nsw i32 %24, 4
  %26 = sub nsw i32 %11, %25
  %27 = shl i32 %26, 17
  %28 = load i32, ptr %5, align 8, !tbaa !70
  %29 = icmp slt i32 %27, %28
  %30 = select i1 %29, i32 %27, i32 0
  %31 = sub nsw i32 %28, %30
  %32 = select i1 %29, i32 %25, i32 %26
  %33 = sext i32 %32 to i64
  %34 = getelementptr inbounds i8, ptr @ff_h264_cabac_tables, i64 %33
  %35 = load i8, ptr %34, align 1, !tbaa !97
  %36 = zext i8 %35 to i32
  %37 = shl i32 %32, %36
  store i32 %37, ptr %10, align 4, !tbaa !100
  %38 = shl i32 %31, %36
  store i32 %38, ptr %5, align 8, !tbaa !70
  %39 = and i32 %38, 65535
  %.not42.i = icmp eq i32 %39, 0
  br i1 %.not42.i, label %40, label %vvc_get_cabac.exit

40:                                               ; preds = %2
  %41 = add nsw i32 %38, -1
  %42 = xor i32 %41, %38
  %43 = lshr i32 %42, 15
  %44 = zext nneg i32 %43 to i64
  %45 = getelementptr inbounds nuw i8, ptr @ff_h264_cabac_tables, i64 %44
  %46 = load i8, ptr %45, align 1, !tbaa !97
  %47 = zext i8 %46 to i32
  %48 = sub nsw i32 7, %47
  %49 = getelementptr inbounds nuw i8, ptr %4, i64 2688
  %50 = load ptr, ptr %49, align 8, !tbaa !68
  %51 = load i8, ptr %50, align 1, !tbaa !97
  %52 = zext i8 %51 to i32
  %53 = shl nuw nsw i32 %52, 9
  %54 = getelementptr inbounds nuw i8, ptr %50, i64 1
  %55 = load i8, ptr %54, align 1, !tbaa !97
  %56 = zext i8 %55 to i32
  %57 = shl nuw nsw i32 %56, 1
  %58 = or disjoint i32 %57, %53
  %59 = add nsw i32 %58, -65535
  %60 = shl nsw i32 %59, %48
  %61 = add i32 %60, %38
  store i32 %61, ptr %5, align 8, !tbaa !70
  %62 = getelementptr inbounds nuw i8, ptr %4, i64 2696
  %63 = load ptr, ptr %62, align 8, !tbaa !71
  %64 = icmp ult ptr %50, %63
  br i1 %64, label %65, label %vvc_get_cabac.exit

65:                                               ; preds = %40
  %66 = getelementptr inbounds nuw i8, ptr %50, i64 2
  store ptr %66, ptr %49, align 8, !tbaa !68
  br label %vvc_get_cabac.exit

vvc_get_cabac.exit:                               ; preds = %2, %40, %65
  %67 = lshr i32 %19, 14
  %68 = zext i1 %29 to i32
  %69 = xor i32 %67, %68
  %70 = getelementptr i8, ptr %8, i64 880
  %71 = load i8, ptr %70, align 2, !tbaa !97
  %72 = zext i8 %71 to i32
  %73 = lshr i32 %17, %72
  %74 = sub nsw i32 %17, %73
  %75 = mul nuw nsw i32 %69, 1023
  %76 = lshr i32 %75, %72
  %77 = add nsw i32 %74, %76
  %78 = trunc i32 %77 to i16
  store i16 %78, ptr %9, align 2, !tbaa !58
  %79 = getelementptr i8, ptr %8, i64 881
  %80 = load i8, ptr %79, align 1, !tbaa !97
  %81 = zext i8 %80 to i32
  %82 = lshr i32 %15, %81
  %83 = sub nsw i32 %15, %82
  %84 = mul nuw nsw i32 %69, 16383
  %85 = lshr i32 %84, %81
  %86 = add nsw i32 %83, %85
  %87 = trunc i32 %86 to i16
  store i16 %87, ptr %13, align 2, !tbaa !58
  ret i32 %69
}